target datalayout = "e-m:e-p270:32:32-p271:32:32-p272:64:64-i64:64-i128:128-f80:128-n8:16:32:64-S128"
target triple = "x86_64-pc-linux-gnu"

%struct.ident_t = type { i32, i32, i32, i32, ptr }
%"struct.faiss::HeapArray" = type { i64, i64, ptr, ptr }

@2 = private unnamed_addr constant %struct.ident_t { i32 0, i32 2, i32 0, i32 22, ptr @0 }, align 8

; Function Attrs: mustprogress uwtable
define void @_ZN5faiss27generalized_hammings_knn_hcEPNS_9HeapArrayINS_4CMaxIilEEEEPKhS6_mmi(ptr noalias noundef %0, ptr noalias noundef %1, ptr noalias noundef %2, i64 noundef %3, i64 noundef %4, i32 noundef %5) #0 {
  %7 = alloca ptr, align 8
  %8 = alloca ptr, align 8
  %9 = alloca ptr, align 8
  %10 = alloca i64, align 8
  %11 = alloca i64, align 8
  %12 = alloca i32, align 4
  %13 = alloca i32, align 4
  %14 = alloca i32, align 4
  store ptr %0, ptr %7, align 8, !tbaa !67
  store ptr %1, ptr %8, align 8, !tbaa !21
  store ptr %2, ptr %9, align 8, !tbaa !21
  store i64 %3, ptr %10, align 8, !tbaa !9
  store i64 %4, ptr %11, align 8, !tbaa !9
  store i32 %5, ptr %12, align 4, !tbaa !13
  call void @llvm.lifetime.start.p0(i64 4, ptr %13) #7
  %15 = load ptr, ptr %7, align 8, !tbaa !67
  %16 = getelementptr inbounds nuw %"struct.faiss::HeapArray", ptr %15, i32 0, i32 0
  %17 = load i64, ptr %16, align 8, !tbaa !83
  %18 = trunc i64 %17 to i32
  store i32 %18, ptr %13, align 4, !tbaa !13
  call void @llvm.lifetime.start.p0(i64 4, ptr %14) #7
  %19 = load ptr, ptr %7, align 8, !tbaa !67
  %20 = getelementptr inbounds nuw %"struct.faiss::HeapArray", ptr %19, i32 0, i32 1
  %21 = load i64, ptr %20, align 8, !tbaa !77
  %22 = trunc i64 %21 to i32
  store i32 %22, ptr %14, align 4, !tbaa !13
  %23 = load i32, ptr %12, align 4, !tbaa !13
  %24 = icmp ne i32 %23, 0
  br i1 %24, label %25, label %27

25:                                               ; preds = %6
  %26 = load ptr, ptr %7, align 8, !tbaa !67
  call void @_ZN5faiss9HeapArrayINS_4CMaxIilEEE7heapifyEv(ptr noundef nonnull align 8 dereferenceable(32) %26)
  br label %27

27:                                               ; preds = %25, %6
  call void (ptr, i32, ptr, ...) @__kmpc_fork_call(ptr @2, i32 7, ptr @_ZN5faiss27generalized_hammings_knn_hcEPNS_9HeapArrayINS_4CMaxIilEEEEPKhS6_mmi.omp_outlined, ptr %13, ptr %8, ptr %11, ptr %9, ptr %7, ptr %14, ptr %10)
  %28 = load i32, ptr %12, align 4, !tbaa !13
  %29 = icmp ne i32 %28, 0
  br i1 %29, label %30, label %32

30:                                               ; preds = %27
  %31 = load ptr, ptr %7, align 8, !tbaa !67
  call void @_ZN5faiss9HeapArrayINS_4CMaxIilEEE7reorderEv(ptr noundef nonnull align 8 dereferenceable(32) %31)
  br label %32

32:                                               ; preds = %30, %27
  call void @llvm.lifetime.end.p0(i64 4, ptr %14) #7
  call void @llvm.lifetime.end.p0(i64 4, ptr %13) #7
  ret void
}