; Function Attrs: mustprogress uwtable
define void @_ZN5faiss27generalized_hammings_knn_hcEPNS_9HeapArrayINS_4CMaxIilEEEEPKhS6_mmi(ptr noalias noundef %0, ptr noalias noundef %1, ptr noalias noundef %2, i64 noundef %3, i64 noundef %4, i32 noundef %5) local_unnamed_addr #11 {
  %7 = alloca ptr, align 8
  %8 = alloca ptr, align 8
  %9 = alloca ptr, align 8
  %10 = alloca i64, align 8
  %11 = alloca i64, align 8
  %12 = alloca i32, align 4
  %13 = alloca i32, align 4
  store ptr %0, ptr %7, align 8, !tbaa !112
  store ptr %1, ptr %8, align 8, !tbaa !22
  store ptr %2, ptr %9, align 8, !tbaa !22
  store i64 %3, ptr %10, align 8, !tbaa !4
  store i64 %4, ptr %11, align 8, !tbaa !4
  call void @llvm.lifetime.start.p0(i64 4, ptr nonnull %12) #5
  %14 = load i64, ptr %0, align 8, !tbaa !169
  %15 = trunc i64 %14 to i32
  store i32 %15, ptr %12, align 4, !tbaa !10
  call void @llvm.lifetime.start.p0(i64 4, ptr nonnull %13) #5
  %16 = getelementptr inbounds nuw i8, ptr %0, i64 8
  %17 = load i64, ptr %16, align 8, !tbaa !116
  %18 = trunc i64 %17 to i32
  store i32 %18, ptr %13, align 4, !tbaa !10
  %.not = icmp eq i32 %5, 0
  br i1 %.not, label %.critedge, label %19

19:                                               ; preds = %6
  tail call void @_ZN5faiss9HeapArrayINS_4CMaxIilEEE7heapifyEv(ptr noundef nonnull align 8 dereferenceable(32) %0)
  call void (ptr, i32, ptr, ...) @__kmpc_fork_call(ptr nonnull @2, i32 7, ptr nonnull @_ZN5faiss27generalized_hammings_knn_hcEPNS_9HeapArrayINS_4CMaxIilEEEEPKhS6_mmi.omp_outlined, ptr nonnull %12, ptr nonnull %8, ptr nonnull %11, ptr nonnull %9, ptr nonnull %7, ptr nonnull %13, ptr nonnull %10)
  %20 = load ptr, ptr %7, align 8, !tbaa !112
  call void @_ZN5faiss9HeapArrayINS_4CMaxIilEEE7reorderEv(ptr noundef nonnull align 8 dereferenceable(32) %20)
  br label %21

.critedge:                                        ; preds = %6
  call void (ptr, i32, ptr, ...) @__kmpc_fork_call(ptr nonnull @2, i32 7, ptr nonnull @_ZN5faiss27generalized_hammings_knn_hcEPNS_9HeapArrayINS_4CMaxIilEEEEPKhS6_mmi.omp_outlined, ptr nonnull %12, ptr nonnull %8, ptr nonnull %11, ptr nonnull %9, ptr nonnull %7, ptr nonnull %13, ptr nonnull %10)
  br label %21

21:                                               ; preds = %.critedge, %19
  call void @llvm.lifetime.end.p0(i64 4, ptr nonnull %13) #5
  call void @llvm.lifetime.end.p0(i64 4, ptr nonnull %12) #5
  ret void
}